target datalayout = "e-m:e-p270:32:32-p271:32:32-p272:64:64-i64:64-i128:128-f80:128-n8:16:32:64-S128"
target triple = "x86_64-pc-linux-gnu"

%struct.ssl_connection_st = type { %struct.ssl_st, ptr, i32, ptr, ptr, ptr, i32, ptr, i32, i32, i32, i32, %struct.OSSL_TIME, %struct.OSSL_TIME, %struct.ossl_statem_st, i32, ptr, ptr, i64, i64, i64, %struct.ossl_quic_tls_callbacks_st, ptr, ptr, %struct.anon, ptr, ptr, ptr, i32, ptr, %struct.ssl_dane_st, ptr, ptr, ptr, ptr, i32, [64 x i8], [64 x i8], [64 x i8], [64 x i8], [64 x i8], [64 x i8], [64 x i8], [64 x i8], [64 x i8], [64 x i8], [64 x i8], [64 x i8], ptr, [64 x i8], i64, i32, i64, [32 x i8], ptr, ptr, ptr, i64, ptr, [32 x i8], i64, i32, ptr, ptr, i32, i32, ptr, ptr, ptr, ptr, ptr, i64, ptr, ptr, i64, i32, i32, i32, i64, i32, i32, i64, i64, i64, %struct.anon.1, ptr, i32, ptr, ptr, ptr, i32, ptr, ptr, ptr, i32, i32, i32, i32, ptr, i64, i32, ptr, %struct.srp_ctx_st, ptr, %struct.record_layer_st, ptr, ptr, ptr, ptr, i64, i32, i32, i32, i64, i64, i64, ptr, ptr, ptr, ptr, ptr, i64, ptr, i64, ptr, i64 }
%struct.ssl_st = type { i32, ptr, ptr, ptr, %struct.CRYPTO_REF_COUNT, ptr, %struct.crypto_ex_data_st }
%struct.CRYPTO_REF_COUNT = type { i32 }
%struct.crypto_ex_data_st = type { ptr, ptr }
%struct.OSSL_TIME = type { i64 }
%struct.ossl_statem_st = type { i32, i32, i32, i32, i32, i32, i32, i32, i32, i32, i32, i32, i32, ptr, ptr, ptr, i8 }
%struct.ossl_quic_tls_callbacks_st = type { ptr, ptr, ptr, ptr, ptr, ptr }
%struct.anon = type { i64, [32 x i8], [32 x i8], ptr, ptr, i32, i32, i32, i32, [2 x i8], i32, i32, i32, i32, %struct.anon.0, [64 x i8], i64, [64 x i8], i64, i32, i32, ptr, i64, ptr, i64, i32, i8, i8, i16, ptr, i16 }
%struct.anon.0 = type { [128 x i8], i64, [128 x i8], i64, i64, i32, ptr, ptr, [4 x ptr], [4 x i16], i64, i32, ptr, i64, ptr, i64, ptr, ptr, ptr, i32, i64, ptr, i32, ptr, i64, ptr, i64, ptr, i64, ptr, ptr, ptr, ptr, i64, i64, ptr, ptr, i32, i32, i32, i32 }
%struct.ssl_dane_st = type { ptr, ptr, ptr, ptr, ptr, i32, i32, i32, i64 }
%struct.anon.1 = type { [29 x i8], ptr, ptr, ptr, i32, ptr, i16, i32, %struct.anon.2, i32, i32, i64, ptr, i64, ptr, i64, ptr, i64, ptr, i64, ptr, i64, ptr, ptr, ptr, ptr, ptr, ptr, ptr, i64, ptr, i64, i32, i32, i32, i32, ptr, i64, i32, i8, i32, [4 x i32], i32, i8, i8, i8, i8 }
%struct.anon.2 = type { ptr, ptr, ptr, i64 }
%struct.srp_ctx_st = type { ptr, ptr, ptr, ptr, ptr, ptr, ptr, ptr, ptr, ptr, ptr, ptr, ptr, ptr, i32, i64 }
%struct.record_layer_st = type { ptr, ptr, ptr, ptr, ptr, ptr, ptr, ptr, i64, i32, i64, [4 x i8], i64, i64, i8, ptr, i32, ptr, ptr, ptr, i64, i64, i64, i64, [32 x %struct.tls_record_st] }
%struct.tls_record_st = type { ptr, i32, i8, ptr, ptr, i64, i64, i16, [8 x i8] }
%struct.ssl_method_st = type { i32, i32, i64, ptr, ptr, ptr, ptr, ptr, ptr, ptr, ptr, ptr, ptr, ptr, ptr, ptr, ptr, ptr, ptr, ptr, ptr, ptr, ptr, ptr, ptr, ptr, ptr, ptr, ptr, ptr, ptr, ptr }
%struct.ssl3_enc_method = type { ptr, ptr, ptr, ptr, ptr, i64, ptr, i64, ptr, ptr, i32, ptr, ptr, ptr }
%struct.ssl_cipher_st = type { i32, ptr, ptr, i32, i32, i32, i32, i32, i32, i32, i32, i32, i32, i32, i32, i32 }

; Function Attrs: nounwind uwtable
define i32 @send_certificate_request(ptr noundef %0) #0 {
  %2 = alloca i32, align 4
  %3 = alloca ptr, align 8
  store ptr %0, ptr %3, align 8, !tbaa !11
  %4 = load ptr, ptr %3, align 8, !tbaa !11
  %5 = getelementptr inbounds nuw %struct.ssl_connection_st, ptr %4, i32 0, i32 61
  %6 = load i32, ptr %5, align 8, !tbaa !86
  %7 = and i32 %6, 1
  %8 = icmp ne i32 %7, 0
  br i1 %8, label %9, label %95

9:                                                ; preds = %1
  %10 = load ptr, ptr %3, align 8, !tbaa !11
  %11 = getelementptr inbounds nuw %struct.ssl_connection_st, ptr %10, i32 0, i32 0
  %12 = getelementptr inbounds nuw %struct.ssl_st, ptr %11, i32 0, i32 3
  %13 = load ptr, ptr %12, align 8, !tbaa !17
  %14 = getelementptr inbounds nuw %struct.ssl_method_st, ptr %13, i32 0, i32 28
  %15 = load ptr, ptr %14, align 8, !tbaa !77
  %16 = getelementptr inbounds nuw %struct.ssl3_enc_method, ptr %15, i32 0, i32 10
  %17 = load i32, ptr %16, align 8, !tbaa !80
  %18 = and i32 %17, 8
  %19 = icmp ne i32 %18, 0
  br i1 %19, label %47, label %20

20:                                               ; preds = %9
  %21 = load ptr, ptr %3, align 8, !tbaa !11
  %22 = getelementptr inbounds nuw %struct.ssl_connection_st, ptr %21, i32 0, i32 0
  %23 = getelementptr inbounds nuw %struct.ssl_st, ptr %22, i32 0, i32 3
  %24 = load ptr, ptr %23, align 8, !tbaa !17
  %25 = getelementptr inbounds nuw %struct.ssl_method_st, ptr %24, i32 0, i32 0
  %26 = load i32, ptr %25, align 8, !tbaa !82
  %27 = icmp sge i32 %26, 772
  br i1 %27, label %28, label %47

28:                                               ; preds = %20
  %29 = load ptr, ptr %3, align 8, !tbaa !11
  %30 = getelementptr inbounds nuw %struct.ssl_connection_st, ptr %29, i32 0, i32 0
  %31 = getelementptr inbounds nuw %struct.ssl_st, ptr %30, i32 0, i32 3
  %32 = load ptr, ptr %31, align 8, !tbaa !17
  %33 = getelementptr inbounds nuw %struct.ssl_method_st, ptr %32, i32 0, i32 0
  %34 = load i32, ptr %33, align 8, !tbaa !82
  %35 = icmp ne i32 %34, 65536
  br i1 %35, label %36, label %47

36:                                               ; preds = %28
  %37 = load ptr, ptr %3, align 8, !tbaa !11
  %38 = getelementptr inbounds nuw %struct.ssl_connection_st, ptr %37, i32 0, i32 61
  %39 = load i32, ptr %38, align 8, !tbaa !86
  %40 = and i32 %39, 8
  %41 = icmp ne i32 %40, 0
  br i1 %41, label %42, label %47

42:                                               ; preds = %36
  %43 = load ptr, ptr %3, align 8, !tbaa !11
  %44 = getelementptr inbounds nuw %struct.ssl_connection_st, ptr %43, i32 0, i32 96
  %45 = load i32, ptr %44, align 8, !tbaa !95
  %46 = icmp eq i32 %45, 3
  br i1 %46, label %47, label %95

47:                                               ; preds = %42, %36, %28, %20, %9
  %48 = load ptr, ptr %3, align 8, !tbaa !11
  %49 = getelementptr inbounds nuw %struct.ssl_connection_st, ptr %48, i32 0, i32 100
  %50 = load i32, ptr %49, align 8, !tbaa !102
  %51 = icmp slt i32 %50, 1
  br i1 %51, label %58, label %52

52:                                               ; preds = %47
  %53 = load ptr, ptr %3, align 8, !tbaa !11
  %54 = getelementptr inbounds nuw %struct.ssl_connection_st, ptr %53, i32 0, i32 61
  %55 = load i32, ptr %54, align 8, !tbaa !86
  %56 = and i32 %55, 4
  %57 = icmp ne i32 %56, 0
  br i1 %57, label %95, label %58

58:                                               ; preds = %52, %47
  %59 = load ptr, ptr %3, align 8, !tbaa !11
  %60 = getelementptr inbounds nuw %struct.ssl_connection_st, ptr %59, i32 0, i32 24
  %61 = getelementptr inbounds nuw %struct.anon, ptr %60, i32 0, i32 14
  %62 = getelementptr inbounds nuw %struct.anon.0, ptr %61, i32 0, i32 6
  %63 = load ptr, ptr %62, align 8, !tbaa !103
  %64 = getelementptr inbounds nuw %struct.ssl_cipher_st, ptr %63, i32 0, i32 5
  %65 = load i32, ptr %64, align 8, !tbaa !104
  %66 = and i32 %65, 4
  %67 = icmp ne i32 %66, 0
  br i1 %67, label %68, label %74

68:                                               ; preds = %58
  %69 = load ptr, ptr %3, align 8, !tbaa !11
  %70 = getelementptr inbounds nuw %struct.ssl_connection_st, ptr %69, i32 0, i32 61
  %71 = load i32, ptr %70, align 8, !tbaa !86
  %72 = and i32 %71, 2
  %73 = icmp ne i32 %72, 0
  br i1 %73, label %74, label %95

74:                                               ; preds = %68, %58
  %75 = load ptr, ptr %3, align 8, !tbaa !11
  %76 = getelementptr inbounds nuw %struct.ssl_connection_st, ptr %75, i32 0, i32 24
  %77 = getelementptr inbounds nuw %struct.anon, ptr %76, i32 0, i32 14
  %78 = getelementptr inbounds nuw %struct.anon.0, ptr %77, i32 0, i32 6
  %79 = load ptr, ptr %78, align 8, !tbaa !103
  %80 = getelementptr inbounds nuw %struct.ssl_cipher_st, ptr %79, i32 0, i32 5
  %81 = load i32, ptr %80, align 8, !tbaa !104
  %82 = and i32 %81, 64
  %83 = icmp ne i32 %82, 0
  br i1 %83, label %95, label %84

84:                                               ; preds = %74
  %85 = load ptr, ptr %3, align 8, !tbaa !11
  %86 = getelementptr inbounds nuw %struct.ssl_connection_st, ptr %85, i32 0, i32 24
  %87 = getelementptr inbounds nuw %struct.anon, ptr %86, i32 0, i32 14
  %88 = getelementptr inbounds nuw %struct.anon.0, ptr %87, i32 0, i32 6
  %89 = load ptr, ptr %88, align 8, !tbaa !103
  %90 = getelementptr inbounds nuw %struct.ssl_cipher_st, ptr %89, i32 0, i32 5
  %91 = load i32, ptr %90, align 8, !tbaa !104
  %92 = and i32 %91, 16
  %93 = icmp ne i32 %92, 0
  br i1 %93, label %95, label %94

94:                                               ; preds = %84
  store i32 1, ptr %2, align 4
  br label %96

95:                                               ; preds = %84, %74, %68, %52, %42, %1
  store i32 0, ptr %2, align 4
  br label %96

96:                                               ; preds = %95, %94
  %97 = load i32, ptr %2, align 4
  ret i32 %97
}