; Function Attrs: mustprogress nofree norecurse nosync nounwind willreturn memory(read, inaccessiblemem: none) uwtable
define range(i32 0, 2) i32 @send_certificate_request(ptr noundef readonly captures(none) %0) local_unnamed_addr #4 {
  %2 = getelementptr inbounds nuw i8, ptr %0, i64 2384
  %3 = load i32, ptr %2, align 8, !tbaa !88
  %4 = and i32 %3, 1
  %.not = icmp eq i32 %4, 0
  br i1 %.not, label %34, label %5

5:                                                ; preds = %1
  %6 = getelementptr inbounds nuw i8, ptr %0, i64 24
  %7 = load ptr, ptr %6, align 8, !tbaa !3
  %8 = getelementptr inbounds nuw i8, ptr %7, i64 216
  %9 = load ptr, ptr %8, align 8, !tbaa !69
  %10 = getelementptr inbounds nuw i8, ptr %9, i64 80
  %11 = load i32, ptr %10, align 8, !tbaa !72
  %12 = and i32 %11, 8
  %.not13 = icmp eq i32 %12, 0
  br i1 %.not13, label %13, label %21

13:                                               ; preds = %5
  %14 = load i32, ptr %7, align 8, !tbaa !74
  %15 = icmp slt i32 %14, 772
  %.not14 = icmp eq i32 %14, 65536
  %or.cond = or i1 %15, %.not14
  %16 = and i32 %3, 8
  %.not15 = icmp eq i32 %16, 0
  %or.cond21 = or i1 %.not15, %or.cond
  br i1 %or.cond21, label %21, label %17

17:                                               ; preds = %13
  %18 = getelementptr inbounds nuw i8, ptr %0, i64 2984
  %19 = load i32, ptr %18, align 8, !tbaa !85
  %20 = icmp eq i32 %19, 3
  br i1 %20, label %21, label %34

21:                                               ; preds = %17, %13, %5
  %22 = getelementptr inbounds nuw i8, ptr %0, i64 3008
  %23 = load i32, ptr %22, align 8, !tbaa !93
  %24 = icmp slt i32 %23, 1
  %25 = and i32 %3, 4
  %.not16 = icmp eq i32 %25, 0
  %or.cond23 = or i1 %.not16, %24
  br i1 %or.cond23, label %26, label %34

26:                                               ; preds = %21
  %27 = getelementptr inbounds nuw i8, ptr %0, i64 768
  %28 = load ptr, ptr %27, align 8, !tbaa !94
  %29 = getelementptr inbounds nuw i8, ptr %28, i64 32
  %30 = load i32, ptr %29, align 8, !tbaa !95
  %31 = and i32 %30, 4
  %.not17 = icmp eq i32 %31, 0
  %32 = and i32 %3, 2
  %.not18 = icmp ne i32 %32, 0
  %or.cond24.not26 = or i1 %.not18, %.not17
  %33 = and i32 %30, 80
  %or.cond22 = icmp eq i32 %33, 0
  %or.cond25 = and i1 %or.cond22, %or.cond24.not26
  br i1 %or.cond25, label %35, label %34

34:                                               ; preds = %26, %21, %17, %1
  br label %35

35:                                               ; preds = %26, %34
  %.0 = phi i32 [ 0, %34 ], [ 1, %26 ]
  ret i32 %.0
}